target datalayout = "e-m:e-p270:32:32-p271:32:32-p272:64:64-i64:64-i128:128-f80:128-n8:16:32:64-S128"
target triple = "x86_64-pc-linux-gnu"

%struct._generic_ARKInterp = type { ptr, ptr }
%struct._ARKInterpContent_Lagrange = type { i32, i32, ptr, ptr, i32, double }

; Function Attrs: nounwind uwtable
define double @LBasisD3(ptr noundef %0, i32 noundef %1, double noundef %2) #0 {
  %4 = alloca ptr, align 8
  %5 = alloca i32, align 4
  %6 = alloca double, align 8
  %7 = alloca i32, align 4
  %8 = alloca i32, align 4
  %9 = alloca i32, align 4
  %10 = alloca i32, align 4
  %11 = alloca double, align 8
  %12 = alloca double, align 8
  %13 = alloca double, align 8
  %14 = alloca double, align 8
  store ptr %0, ptr %4, align 8, !tbaa !8
  store i32 %1, ptr %5, align 4, !tbaa !24
  store double %2, ptr %6, align 8, !tbaa !27
  call void @llvm.lifetime.start.p0(i64 4, ptr %7) #7
  call void @llvm.lifetime.start.p0(i64 4, ptr %8) #7
  call void @llvm.lifetime.start.p0(i64 4, ptr %9) #7
  call void @llvm.lifetime.start.p0(i64 4, ptr %10) #7
  call void @llvm.lifetime.start.p0(i64 8, ptr %11) #7
  call void @llvm.lifetime.start.p0(i64 8, ptr %12) #7
  call void @llvm.lifetime.start.p0(i64 8, ptr %13) #7
  call void @llvm.lifetime.start.p0(i64 8, ptr %14) #7
  store double 0.000000e+00, ptr %11, align 8, !tbaa !27
  store i32 0, ptr %10, align 4, !tbaa !24
  br label %15

15:                                               ; preds = %215, %3
  %16 = load i32, ptr %10, align 4, !tbaa !24
  %17 = load ptr, ptr %4, align 8, !tbaa !8
  %18 = getelementptr inbounds nuw %struct._generic_ARKInterp, ptr %17, i32 0, i32 0
  %19 = load ptr, ptr %18, align 8, !tbaa !35
  %20 = getelementptr inbounds nuw %struct._ARKInterpContent_Lagrange, ptr %19, i32 0, i32 4
  %21 = load i32, ptr %20, align 8, !tbaa !67
  %22 = icmp slt i32 %16, %21
  br i1 %22, label %23, label %218

23:                                               ; preds = %15
  %24 = load i32, ptr %10, align 4, !tbaa !24
  %25 = load i32, ptr %5, align 4, !tbaa !24
  %26 = icmp eq i32 %24, %25
  br i1 %26, label %27, label %28

27:                                               ; preds = %23
  br label %215

28:                                               ; preds = %23
  store double 0.000000e+00, ptr %12, align 8, !tbaa !27
  store i32 0, ptr %9, align 4, !tbaa !24
  br label %29

29:                                               ; preds = %188, %28
  %30 = load i32, ptr %9, align 4, !tbaa !24
  %31 = load ptr, ptr %4, align 8, !tbaa !8
  %32 = getelementptr inbounds nuw %struct._generic_ARKInterp, ptr %31, i32 0, i32 0
  %33 = load ptr, ptr %32, align 8, !tbaa !35
  %34 = getelementptr inbounds nuw %struct._ARKInterpContent_Lagrange, ptr %33, i32 0, i32 4
  %35 = load i32, ptr %34, align 8, !tbaa !67
  %36 = icmp slt i32 %30, %35
  br i1 %36, label %37, label %191

37:                                               ; preds = %29
  %38 = load i32, ptr %9, align 4, !tbaa !24
  %39 = load i32, ptr %5, align 4, !tbaa !24
  %40 = icmp eq i32 %38, %39
  br i1 %40, label %41, label %42

41:                                               ; preds = %37
  br label %188

42:                                               ; preds = %37
  %43 = load i32, ptr %9, align 4, !tbaa !24
  %44 = load i32, ptr %10, align 4, !tbaa !24
  %45 = icmp eq i32 %43, %44
  br i1 %45, label %46, label %47

46:                                               ; preds = %42
  br label %188

47:                                               ; preds = %42
  store double 0.000000e+00, ptr %13, align 8, !tbaa !27
  store i32 0, ptr %7, align 4, !tbaa !24
  br label %48

48:                                               ; preds = %161, %47
  %49 = load i32, ptr %7, align 4, !tbaa !24
  %50 = load ptr, ptr %4, align 8, !tbaa !8
  %51 = getelementptr inbounds nuw %struct._generic_ARKInterp, ptr %50, i32 0, i32 0
  %52 = load ptr, ptr %51, align 8, !tbaa !35
  %53 = getelementptr inbounds nuw %struct._ARKInterpContent_Lagrange, ptr %52, i32 0, i32 4
  %54 = load i32, ptr %53, align 8, !tbaa !67
  %55 = icmp slt i32 %49, %54
  br i1 %55, label %56, label %164

56:                                               ; preds = %48
  %57 = load i32, ptr %7, align 4, !tbaa !24
  %58 = load i32, ptr %5, align 4, !tbaa !24
  %59 = icmp eq i32 %57, %58
  br i1 %59, label %60, label %61

60:                                               ; preds = %56
  br label %161

61:                                               ; preds = %56
  %62 = load i32, ptr %7, align 4, !tbaa !24
  %63 = load i32, ptr %10, align 4, !tbaa !24
  %64 = icmp eq i32 %62, %63
  br i1 %64, label %65, label %66

65:                                               ; preds = %61
  br label %161

66:                                               ; preds = %61
  %67 = load i32, ptr %7, align 4, !tbaa !24
  %68 = load i32, ptr %9, align 4, !tbaa !24
  %69 = icmp eq i32 %67, %68
  br i1 %69, label %70, label %71

70:                                               ; preds = %66
  br label %161

71:                                               ; preds = %66
  store double 1.000000e+00, ptr %14, align 8, !tbaa !27
  store i32 0, ptr %8, align 4, !tbaa !24
  br label %72

72:                                               ; preds = %134, %71
  %73 = load i32, ptr %8, align 4, !tbaa !24
  %74 = load ptr, ptr %4, align 8, !tbaa !8
  %75 = getelementptr inbounds nuw %struct._generic_ARKInterp, ptr %74, i32 0, i32 0
  %76 = load ptr, ptr %75, align 8, !tbaa !35
  %77 = getelementptr inbounds nuw %struct._ARKInterpContent_Lagrange, ptr %76, i32 0, i32 4
  %78 = load i32, ptr %77, align 8, !tbaa !67
  %79 = icmp slt i32 %73, %78
  br i1 %79, label %80, label %137

80:                                               ; preds = %72
  %81 = load i32, ptr %8, align 4, !tbaa !24
  %82 = load i32, ptr %5, align 4, !tbaa !24
  %83 = icmp eq i32 %81, %82
  br i1 %83, label %84, label %85

84:                                               ; preds = %80
  br label %134

85:                                               ; preds = %80
  %86 = load i32, ptr %8, align 4, !tbaa !24
  %87 = load i32, ptr %10, align 4, !tbaa !24
  %88 = icmp eq i32 %86, %87
  br i1 %88, label %89, label %90

89:                                               ; preds = %85
  br label %134

90:                                               ; preds = %85
  %91 = load i32, ptr %8, align 4, !tbaa !24
  %92 = load i32, ptr %9, align 4, !tbaa !24
  %93 = icmp eq i32 %91, %92
  br i1 %93, label %94, label %95

94:                                               ; preds = %90
  br label %134

95:                                               ; preds = %90
  %96 = load i32, ptr %8, align 4, !tbaa !24
  %97 = load i32, ptr %7, align 4, !tbaa !24
  %98 = icmp eq i32 %96, %97
  br i1 %98, label %99, label %100

99:                                               ; preds = %95
  br label %134

100:                                              ; preds = %95
  %101 = load double, ptr %6, align 8, !tbaa !27
  %102 = load ptr, ptr %4, align 8, !tbaa !8
  %103 = getelementptr inbounds nuw %struct._generic_ARKInterp, ptr %102, i32 0, i32 0
  %104 = load ptr, ptr %103, align 8, !tbaa !35
  %105 = getelementptr inbounds nuw %struct._ARKInterpContent_Lagrange, ptr %104, i32 0, i32 3
  %106 = load ptr, ptr %105, align 8, !tbaa !68
  %107 = load i32, ptr %8, align 4, !tbaa !24
  %108 = sext i32 %107 to i64
  %109 = getelementptr inbounds double, ptr %106, i64 %108
  %110 = load double, ptr %109, align 8, !tbaa !27
  %111 = fsub double %101, %110
  %112 = load ptr, ptr %4, align 8, !tbaa !8
  %113 = getelementptr inbounds nuw %struct._generic_ARKInterp, ptr %112, i32 0, i32 0
  %114 = load ptr, ptr %113, align 8, !tbaa !35
  %115 = getelementptr inbounds nuw %struct._ARKInterpContent_Lagrange, ptr %114, i32 0, i32 3
  %116 = load ptr, ptr %115, align 8, !tbaa !68
  %117 = load i32, ptr %5, align 4, !tbaa !24
  %118 = sext i32 %117 to i64
  %119 = getelementptr inbounds double, ptr %116, i64 %118
  %120 = load double, ptr %119, align 8, !tbaa !27
  %121 = load ptr, ptr %4, align 8, !tbaa !8
  %122 = getelementptr inbounds nuw %struct._generic_ARKInterp, ptr %121, i32 0, i32 0
  %123 = load ptr, ptr %122, align 8, !tbaa !35
  %124 = getelementptr inbounds nuw %struct._ARKInterpContent_Lagrange, ptr %123, i32 0, i32 3
  %125 = load ptr, ptr %124, align 8, !tbaa !68
  %126 = load i32, ptr %8, align 4, !tbaa !24
  %127 = sext i32 %126 to i64
  %128 = getelementptr inbounds double, ptr %125, i64 %127
  %129 = load double, ptr %128, align 8, !tbaa !27
  %130 = fsub double %120, %129
  %131 = fdiv double %111, %130
  %132 = load double, ptr %14, align 8, !tbaa !27
  %133 = fmul double %132, %131
  store double %133, ptr %14, align 8, !tbaa !27
  br label %134

134:                                              ; preds = %100, %99, %94, %89, %84
  %135 = load i32, ptr %8, align 4, !tbaa !24
  %136 = add nsw i32 %135, 1
  store i32 %136, ptr %8, align 4, !tbaa !24
  br label %72

137:                                              ; preds = %72
  %138 = load double, ptr %14, align 8, !tbaa !27
  %139 = load ptr, ptr %4, align 8, !tbaa !8
  %140 = getelementptr inbounds nuw %struct._generic_ARKInterp, ptr %139, i32 0, i32 0
  %141 = load ptr, ptr %140, align 8, !tbaa !35
  %142 = getelementptr inbounds nuw %struct._ARKInterpContent_Lagrange, ptr %141, i32 0, i32 3
  %143 = load ptr, ptr %142, align 8, !tbaa !68
  %144 = load i32, ptr %5, align 4, !tbaa !24
  %145 = sext i32 %144 to i64
  %146 = getelementptr inbounds double, ptr %143, i64 %145
  %147 = load double, ptr %146, align 8, !tbaa !27
  %148 = load ptr, ptr %4, align 8, !tbaa !8
  %149 = getelementptr inbounds nuw %struct._generic_ARKInterp, ptr %148, i32 0, i32 0
  %150 = load ptr, ptr %149, align 8, !tbaa !35
  %151 = getelementptr inbounds nuw %struct._ARKInterpContent_Lagrange, ptr %150, i32 0, i32 3
  %152 = load ptr, ptr %151, align 8, !tbaa !68
  %153 = load i32, ptr %7, align 4, !tbaa !24
  %154 = sext i32 %153 to i64
  %155 = getelementptr inbounds double, ptr %152, i64 %154
  %156 = load double, ptr %155, align 8, !tbaa !27
  %157 = fsub double %147, %156
  %158 = fdiv double %138, %157
  %159 = load double, ptr %13, align 8, !tbaa !27
  %160 = fadd double %159, %158
  store double %160, ptr %13, align 8, !tbaa !27
  br label %161

161:                                              ; preds = %137, %70, %65, %60
  %162 = load i32, ptr %7, align 4, !tbaa !24
  %163 = add nsw i32 %162, 1
  store i32 %163, ptr %7, align 4, !tbaa !24
  br label %48

164:                                              ; preds = %48
  %165 = load double, ptr %13, align 8, !tbaa !27
  %166 = load ptr, ptr %4, align 8, !tbaa !8
  %167 = getelementptr inbounds nuw %struct._generic_ARKInterp, ptr %166, i32 0, i32 0
  %168 = load ptr, ptr %167, align 8, !tbaa !35
  %169 = getelementptr inbounds nuw %struct._ARKInterpContent_Lagrange, ptr %168, i32 0, i32 3
  %170 = load ptr, ptr %169, align 8, !tbaa !68
  %171 = load i32, ptr %5, align 4, !tbaa !24
  %172 = sext i32 %171 to i64
  %173 = getelementptr inbounds double, ptr %170, i64 %172
  %174 = load double, ptr %173, align 8, !tbaa !27
  %175 = load ptr, ptr %4, align 8, !tbaa !8
  %176 = getelementptr inbounds nuw %struct._generic_ARKInterp, ptr %175, i32 0, i32 0
  %177 = load ptr, ptr %176, align 8, !tbaa !35
  %178 = getelementptr inbounds nuw %struct._ARKInterpContent_Lagrange, ptr %177, i32 0, i32 3
  %179 = load ptr, ptr %178, align 8, !tbaa !68
  %180 = load i32, ptr %9, align 4, !tbaa !24
  %181 = sext i32 %180 to i64
  %182 = getelementptr inbounds double, ptr %179, i64 %181
  %183 = load double, ptr %182, align 8, !tbaa !27
  %184 = fsub double %174, %183
  %185 = fdiv double %165, %184
  %186 = load double, ptr %12, align 8, !tbaa !27
  %187 = fadd double %186, %185
  store double %187, ptr %12, align 8, !tbaa !27
  br label %188

188:                                              ; preds = %164, %46, %41
  %189 = load i32, ptr %9, align 4, !tbaa !24
  %190 = add nsw i32 %189, 1
  store i32 %190, ptr %9, align 4, !tbaa !24
  br label %29

191:                                              ; preds = %29
  %192 = load double, ptr %12, align 8, !tbaa !27
  %193 = load ptr, ptr %4, align 8, !tbaa !8
  %194 = getelementptr inbounds nuw %struct._generic_ARKInterp, ptr %193, i32 0, i32 0
  %195 = load ptr, ptr %194, align 8, !tbaa !35
  %196 = getelementptr inbounds nuw %struct._ARKInterpContent_Lagrange, ptr %195, i32 0, i32 3
  %197 = load ptr, ptr %196, align 8, !tbaa !68
  %198 = load i32, ptr %5, align 4, !tbaa !24
  %199 = sext i32 %198 to i64
  %200 = getelementptr inbounds double, ptr %197, i64 %199
  %201 = load double, ptr %200, align 8, !tbaa !27
  %202 = load ptr, ptr %4, align 8, !tbaa !8
  %203 = getelementptr inbounds nuw %struct._generic_ARKInterp, ptr %202, i32 0, i32 0
  %204 = load ptr, ptr %203, align 8, !tbaa !35
  %205 = getelementptr inbounds nuw %struct._ARKInterpContent_Lagrange, ptr %204, i32 0, i32 3
  %206 = load ptr, ptr %205, align 8, !tbaa !68
  %207 = load i32, ptr %10, align 4, !tbaa !24
  %208 = sext i32 %207 to i64
  %209 = getelementptr inbounds double, ptr %206, i64 %208
  %210 = load double, ptr %209, align 8, !tbaa !27
  %211 = fsub double %201, %210
  %212 = fdiv double %192, %211
  %213 = load double, ptr %11, align 8, !tbaa !27
  %214 = fadd double %213, %212
  store double %214, ptr %11, align 8, !tbaa !27
  br label %215

215:                                              ; preds = %191, %27
  %216 = load i32, ptr %10, align 4, !tbaa !24
  %217 = add nsw i32 %216, 1
  store i32 %217, ptr %10, align 4, !tbaa !24
  br label %15

218:                                              ; preds = %15
  %219 = load double, ptr %11, align 8, !tbaa !27
  call void @llvm.lifetime.end.p0(i64 8, ptr %14) #7
  call void @llvm.lifetime.end.p0(i64 8, ptr %13) #7
  call void @llvm.lifetime.end.p0(i64 8, ptr %12) #7
  call void @llvm.lifetime.end.p0(i64 8, ptr %11) #7
  call void @llvm.lifetime.end.p0(i64 4, ptr %10) #7
  call void @llvm.lifetime.end.p0(i64 4, ptr %9) #7
  call void @llvm.lifetime.end.p0(i64 4, ptr %8) #7
  call void @llvm.lifetime.end.p0(i64 4, ptr %7) #7
  ret double %219
}