; Function Attrs: nofree norecurse nosync nounwind memory(read, inaccessiblemem: none) uwtable
define double @LBasisD3(ptr noundef readonly captures(none) %0, i32 noundef %1, double noundef %2) local_unnamed_addr #10 {
  %4 = load ptr, ptr %0, align 8, !tbaa !17
  %5 = getelementptr inbounds nuw i8, ptr %4, i64 24
  %6 = load i32, ptr %5, align 8, !tbaa !57
  %7 = icmp sgt i32 %6, 0
  br i1 %7, label %.lr.ph88.split.us.preheader, label %._crit_edge

.lr.ph88.split.us.preheader:                      ; preds = %3
  %8 = getelementptr inbounds nuw i8, ptr %4, i64 16
  %9 = sext i32 %1 to i64
  %10 = zext i32 %1 to i64
  %wide.trip.count105 = zext nneg i32 %6 to i64
  br label %.lr.ph88.split.us

.lr.ph88.split.us:                                ; preds = %.lr.ph88.split.us.preheader, %12
  %indvars.iv102 = phi i64 [ 0, %.lr.ph88.split.us.preheader ], [ %indvars.iv.next103, %12 ]
  %.06287.us = phi double [ 0.000000e+00, %.lr.ph88.split.us.preheader ], [ %.163.us, %12 ]
  %11 = icmp eq i64 %indvars.iv102, %10
  br i1 %11, label %12, label %.preheader75.us

12:                                               ; preds = %._crit_edge.split.us.us, %.lr.ph88.split.us
  %.163.us = phi double [ %.06287.us, %.lr.ph88.split.us ], [ %58, %._crit_edge.split.us.us ]
  %indvars.iv.next103 = add nuw nsw i64 %indvars.iv102, 1
  %exitcond106.not = icmp eq i64 %indvars.iv.next103, %wide.trip.count105
  br i1 %exitcond106.not, label %._crit_edge, label %.lr.ph88.split.us

.preheader75.us:                                  ; preds = %.lr.ph88.split.us, %15
  %indvars.iv97 = phi i64 [ %indvars.iv.next98, %15 ], [ 0, %.lr.ph88.split.us ]
  %.06084.us.us = phi double [ %.161.us.us, %15 ], [ 0.000000e+00, %.lr.ph88.split.us ]
  %13 = icmp eq i64 %indvars.iv97, %10
  %14 = icmp eq i64 %indvars.iv97, %indvars.iv102
  %or.cond.us.us = or i1 %13, %14
  br i1 %or.cond.us.us, label %15, label %.preheader74.us.us

15:                                               ; preds = %._crit_edge81.split.us.us.us, %.preheader75.us
  %.161.us.us = phi double [ %.06084.us.us, %.preheader75.us ], [ %50, %._crit_edge81.split.us.us.us ]
  %indvars.iv.next98 = add nuw nsw i64 %indvars.iv97, 1
  %exitcond101.not = icmp eq i64 %indvars.iv.next98, %wide.trip.count105
  br i1 %exitcond101.not, label %._crit_edge.split.us.us, label %.preheader75.us

.preheader74.us.us:                               ; preds = %.preheader75.us, %34
  %indvars.iv92 = phi i64 [ %indvars.iv.next93, %34 ], [ 0, %.preheader75.us ]
  %.05879.us.us.us = phi double [ %.159.us.us.us, %34 ], [ 0.000000e+00, %.preheader75.us ]
  %16 = icmp eq i64 %indvars.iv92, %10
  %17 = icmp eq i64 %indvars.iv92, %indvars.iv102
  %or.cond69.us.us.us = or i1 %16, %17
  %18 = icmp eq i64 %indvars.iv92, %indvars.iv97
  %or.cond70.us.us.us = or i1 %18, %or.cond69.us.us.us
  br i1 %or.cond70.us.us.us, label %34, label %.preheader.us.us.us

.preheader.us.us.us:                              ; preds = %.preheader74.us.us, %33
  %indvars.iv = phi i64 [ %indvars.iv.next, %33 ], [ 0, %.preheader74.us.us ]
  %.077.us.us.us = phi double [ %.1.us.us.us, %33 ], [ 1.000000e+00, %.preheader74.us.us ]
  %19 = icmp eq i64 %indvars.iv, %10
  %20 = icmp eq i64 %indvars.iv, %indvars.iv102
  %or.cond71.us.us.us = or i1 %19, %20
  %21 = icmp eq i64 %indvars.iv, %indvars.iv97
  %or.cond72.us.us.us = or i1 %21, %or.cond71.us.us.us
  %22 = icmp eq i64 %indvars.iv, %indvars.iv92
  %or.cond73.us.us.us = or i1 %22, %or.cond72.us.us.us
  br i1 %or.cond73.us.us.us, label %33, label %23

23:                                               ; preds = %.preheader.us.us.us
  %24 = load ptr, ptr %8, align 8, !tbaa !58
  %25 = getelementptr inbounds nuw double, ptr %24, i64 %indvars.iv
  %26 = load double, ptr %25, align 8, !tbaa !47
  %27 = fsub double %2, %26
  %28 = getelementptr inbounds double, ptr %24, i64 %9
  %29 = load double, ptr %28, align 8, !tbaa !47
  %30 = fsub double %29, %26
  %31 = fdiv double %27, %30
  %32 = fmul double %.077.us.us.us, %31
  br label %33

33:                                               ; preds = %23, %.preheader.us.us.us
  %.1.us.us.us = phi double [ %.077.us.us.us, %.preheader.us.us.us ], [ %32, %23 ]
  %indvars.iv.next = add nuw nsw i64 %indvars.iv, 1
  %exitcond.not = icmp eq i64 %indvars.iv.next, %wide.trip.count105
  br i1 %exitcond.not, label %._crit_edge.us.us.us, label %.preheader.us.us.us

34:                                               ; preds = %._crit_edge.us.us.us, %.preheader74.us.us
  %.159.us.us.us = phi double [ %.05879.us.us.us, %.preheader74.us.us ], [ %42, %._crit_edge.us.us.us ]
  %indvars.iv.next93 = add nuw nsw i64 %indvars.iv92, 1
  %exitcond96.not = icmp eq i64 %indvars.iv.next93, %wide.trip.count105
  br i1 %exitcond96.not, label %._crit_edge81.split.us.us.us, label %.preheader74.us.us

._crit_edge.us.us.us:                             ; preds = %33
  %35 = load ptr, ptr %8, align 8, !tbaa !58
  %36 = getelementptr inbounds double, ptr %35, i64 %9
  %37 = load double, ptr %36, align 8, !tbaa !47
  %38 = getelementptr inbounds nuw double, ptr %35, i64 %indvars.iv92
  %39 = load double, ptr %38, align 8, !tbaa !47
  %40 = fsub double %37, %39
  %41 = fdiv double %.1.us.us.us, %40
  %42 = fadd double %.05879.us.us.us, %41
  br label %34

._crit_edge81.split.us.us.us:                     ; preds = %34
  %43 = load ptr, ptr %8, align 8, !tbaa !58
  %44 = getelementptr inbounds double, ptr %43, i64 %9
  %45 = load double, ptr %44, align 8, !tbaa !47
  %46 = getelementptr inbounds nuw double, ptr %43, i64 %indvars.iv97
  %47 = load double, ptr %46, align 8, !tbaa !47
  %48 = fsub double %45, %47
  %49 = fdiv double %.159.us.us.us, %48
  %50 = fadd double %.06084.us.us, %49
  br label %15

._crit_edge.split.us.us:                          ; preds = %15
  %51 = load ptr, ptr %8, align 8, !tbaa !58
  %52 = getelementptr inbounds double, ptr %51, i64 %9
  %53 = load double, ptr %52, align 8, !tbaa !47
  %54 = getelementptr inbounds nuw double, ptr %51, i64 %indvars.iv102
  %55 = load double, ptr %54, align 8, !tbaa !47
  %56 = fsub double %53, %55
  %57 = fdiv double %.161.us.us, %56
  %58 = fadd double %.06287.us, %57
  br label %12

._crit_edge:                                      ; preds = %12, %3
  %.062.lcssa = phi double [ 0.000000e+00, %3 ], [ %.163.us, %12 ]
  ret double %.062.lcssa
}